; ModuleID = 'source-C-CXX/42/1571.c'
source_filename = "source-C-CXX/42/1571.c"
target datalayout = "e-m:e-p270:32:32-p271:32:32-p272:64:64-i64:64-f80:128-n8:16:32:64-S128"
target triple = "x86_64-pc-linux-gnu"

@.str = private unnamed_addr constant [3 x i8] c"%d\00", align 1
@.str.1 = private unnamed_addr constant [7 x i8] c"%d %d\0A\00", align 1

; Function Attrs: nofree nounwind sspstrong uwtable
define dso_local i32 @main() local_unnamed_addr #0 {
  %1 = alloca i32, align 4
  %2 = bitcast i32* %1 to i8*
  call void @llvm.lifetime.start.p0i8(i64 4, i8* nonnull %2) #3
  %3 = call i32 (i8*, ...) @__isoc99_scanf(i8* getelementptr inbounds ([3 x i8], [3 x i8]* @.str, i64 0, i64 0), i32* nonnull %1)
  %4 = load i32, i32* %1, align 4, !tbaa !5
  %5 = icmp slt i32 %4, 4
  br i1 %5, label %46, label %6

6:                                                ; preds = %0, %40
  %7 = phi i32 [ %41, %40 ], [ %4, %0 ]
  %8 = phi i32 [ %42, %40 ], [ undef, %0 ]
  %9 = phi i32 [ %20, %40 ], [ undef, %0 ]
  %10 = phi i32 [ %43, %40 ], [ 2, %0 ]
  %11 = icmp ugt i32 %10, 2
  br i1 %11, label %12, label %19

12:                                               ; preds = %6, %12
  %13 = phi i32 [ %16, %12 ], [ 2, %6 ]
  %14 = urem i32 %10, %13
  %15 = icmp ne i32 %14, 0
  %16 = add nuw nsw i32 %13, 1
  %17 = icmp ult i32 %16, %10
  %18 = select i1 %15, i1 %17, i1 false
  br i1 %18, label %12, label %19, !llvm.loop !9

19:                                               ; preds = %12, %6
  %20 = phi i32 [ %9, %6 ], [ %13, %12 ]
  %21 = add nsw i32 %10, -1
  %22 = icmp eq i32 %20, %21
  br i1 %22, label %23, label %40

23:                                               ; preds = %19
  %24 = sub nsw i32 %7, %10
  %25 = icmp sgt i32 %24, 2
  br i1 %25, label %26, label %33

26:                                               ; preds = %23, %26
  %27 = phi i32 [ %30, %26 ], [ 2, %23 ]
  %28 = srem i32 %24, %27
  %29 = icmp ne i32 %28, 0
  %30 = add nuw nsw i32 %27, 1
  %31 = icmp slt i32 %30, %24
  %32 = select i1 %29, i1 %31, i1 false
  br i1 %32, label %26, label %33, !llvm.loop !11

33:                                               ; preds = %26, %23
  %34 = phi i32 [ %8, %23 ], [ %27, %26 ]
  %35 = add nsw i32 %24, -1
  %36 = icmp eq i32 %34, %35
  br i1 %36, label %37, label %40

37:                                               ; preds = %33
  %38 = call i32 (i8*, ...) @printf(i8* nonnull dereferenceable(1) getelementptr inbounds ([7 x i8], [7 x i8]* @.str.1, i64 0, i64 0), i32 %10, i32 %24)
  %39 = load i32, i32* %1, align 4, !tbaa !5
  br label %40

40:                                               ; preds = %19, %37, %33
  %41 = phi i32 [ %39, %37 ], [ %7, %33 ], [ %7, %19 ]
  %42 = phi i32 [ %34, %37 ], [ %34, %33 ], [ %8, %19 ]
  %43 = add nuw nsw i32 %10, 1
  %44 = sdiv i32 %41, 2
  %45 = icmp slt i32 %10, %44
  br i1 %45, label %6, label %46, !llvm.loop !12

46:                                               ; preds = %40, %0
  call void @llvm.lifetime.end.p0i8(i64 4, i8* nonnull %2) #3
  ret i32 0
}

; Function Attrs: argmemonly mustprogress nofree nosync nounwind willreturn
declare void @llvm.lifetime.start.p0i8(i64 immarg, i8* nocapture) #1

; Function Attrs: nofree nounwind
declare noundef i32 @__isoc99_scanf(i8* nocapture noundef readonly, ...) local_unnamed_addr #2

; Function Attrs: nofree nounwind
declare noundef i32 @printf(i8* nocapture noundef readonly, ...) local_unnamed_addr #2

; Function Attrs: argmemonly mustprogress nofree nosync nounwind willreturn
declare void @llvm.lifetime.end.p0i8(i64 immarg, i8* nocapture) #1


!llvm.module.flags = !{!0, !1, !2, !3}
!llvm.ident = !{!4}

!0 = !{i32 1, !"wchar_size", i32 4}
!1 = !{i32 7, !"PIC Level", i32 2}
!2 = !{i32 7, !"PIE Level", i32 2}
!3 = !{i32 7, !"uwtable", i32 1}
!4 = !{!"clang version 13.0.0"}
!5 = !{!6, !6, i64 0}
!6 = !{!"int", !7, i64 0}
!7 = !{!"omnipotent char", !8, i64 0}
!8 = !{!"Simple C/C++ TBAA"}
!9 = distinct !{!9, !10}
!10 = !{!"llvm.loop.mustprogress"}
!11 = distinct !{!11, !10}
!12 = distinct !{!12, !10}
